; ModuleID = '17/1341.c'
source_filename = "17/1341.c"
target datalayout = "e-m:e-p270:32:32-p271:32:32-p272:64:64-i64:64-f80:128-n8:16:32:64-S128"
target triple = "x86_64-pc-linux-gnu"

; Function Attrs: noinline nounwind uwtable
define dso_local i32 @main() #0 {
  %1 = alloca i32, align 4
  %2 = alloca [100 x i32], align 16
  %3 = alloca [101 x i8], align 16
  %4 = alloca i32, align 4
  %5 = alloca i32, align 4
  store i32 0, i32* %1, align 4
  br label %6

6:                                                ; preds = %82, %0
  %7 = getelementptr inbounds [101 x i8], [101 x i8]* %3, i64 0, i64 0
  %8 = call i32 (i8*, ...) bitcast (i32 (...)* @gets to i32 (i8*, ...)*)(i8* %7)
  %9 = icmp ne i32 %8, 0
  br i1 %9, label %10, label %85

10:                                               ; preds = %6
  store i32 0, i32* %5, align 4
  %11 = getelementptr inbounds [101 x i8], [101 x i8]* %3, i64 0, i64 0
  %12 = call i32 @puts(i8* %11)
  store i32 0, i32* %4, align 4
  br label %13

13:                                               ; preds = %64, %10
  %14 = load i32, i32* %4, align 4
  %15 = sext i32 %14 to i64
  %16 = getelementptr inbounds [101 x i8], [101 x i8]* %3, i64 0, i64 %15
  %17 = load i8, i8* %16, align 1
  %18 = icmp ne i8 %17, 0
  br i1 %18, label %19, label %67

19:                                               ; preds = %13
  %20 = load i32, i32* %4, align 4
  %21 = sext i32 %20 to i64
  %22 = getelementptr inbounds [101 x i8], [101 x i8]* %3, i64 0, i64 %21
  %23 = load i8, i8* %22, align 1
  %24 = sext i8 %23 to i32
  %25 = icmp eq i32 %24, 40
  br i1 %25, label %26, label %32

26:                                               ; preds = %19
  %27 = load i32, i32* %4, align 4
  %28 = load i32, i32* %5, align 4
  %29 = add nsw i32 %28, 1
  store i32 %29, i32* %5, align 4
  %30 = sext i32 %28 to i64
  %31 = getelementptr inbounds [100 x i32], [100 x i32]* %2, i64 0, i64 %30
  store i32 %27, i32* %31, align 4
  br label %63

32:                                               ; preds = %19
  %33 = load i32, i32* %4, align 4
  %34 = sext i32 %33 to i64
  %35 = getelementptr inbounds [101 x i8], [101 x i8]* %3, i64 0, i64 %34
  %36 = load i8, i8* %35, align 1
  %37 = sext i8 %36 to i32
  %38 = icmp eq i32 %37, 41
  br i1 %38, label %39, label %58

39:                                               ; preds = %32
  %40 = load i32, i32* %5, align 4
  %41 = icmp eq i32 %40, 0
  br i1 %41, label %42, label %46

42:                                               ; preds = %39
  %43 = load i32, i32* %4, align 4
  %44 = sext i32 %43 to i64
  %45 = getelementptr inbounds [101 x i8], [101 x i8]* %3, i64 0, i64 %44
  store i8 63, i8* %45, align 1
  br label %57

46:                                               ; preds = %39
  %47 = load i32, i32* %4, align 4
  %48 = sext i32 %47 to i64
  %49 = getelementptr inbounds [101 x i8], [101 x i8]* %3, i64 0, i64 %48
  store i8 32, i8* %49, align 1
  %50 = load i32, i32* %5, align 4
  %51 = add nsw i32 %50, -1
  store i32 %51, i32* %5, align 4
  %52 = sext i32 %51 to i64
  %53 = getelementptr inbounds [100 x i32], [100 x i32]* %2, i64 0, i64 %52
  %54 = load i32, i32* %53, align 4
  %55 = sext i32 %54 to i64
  %56 = getelementptr inbounds [101 x i8], [101 x i8]* %3, i64 0, i64 %55
  store i8 32, i8* %56, align 1
  br label %57

57:                                               ; preds = %46, %42
  br label %62

58:                                               ; preds = %32
  %59 = load i32, i32* %4, align 4
  %60 = sext i32 %59 to i64
  %61 = getelementptr inbounds [101 x i8], [101 x i8]* %3, i64 0, i64 %60
  store i8 32, i8* %61, align 1
  br label %62

62:                                               ; preds = %58, %57
  br label %63

63:                                               ; preds = %62, %26
  br label %64

64:                                               ; preds = %63
  %65 = load i32, i32* %4, align 4
  %66 = add nsw i32 %65, 1
  store i32 %66, i32* %4, align 4
  br label %13

67:                                               ; preds = %13
  store i32 0, i32* %4, align 4
  br label %68

68:                                               ; preds = %79, %67
  %69 = load i32, i32* %4, align 4
  %70 = load i32, i32* %5, align 4
  %71 = icmp slt i32 %69, %70
  br i1 %71, label %72, label %82

72:                                               ; preds = %68
  %73 = load i32, i32* %4, align 4
  %74 = sext i32 %73 to i64
  %75 = getelementptr inbounds [100 x i32], [100 x i32]* %2, i64 0, i64 %74
  %76 = load i32, i32* %75, align 4
  %77 = sext i32 %76 to i64
  %78 = getelementptr inbounds [101 x i8], [101 x i8]* %3, i64 0, i64 %77
  store i8 36, i8* %78, align 1
  br label %79

79:                                               ; preds = %72
  %80 = load i32, i32* %4, align 4
  %81 = add nsw i32 %80, 1
  store i32 %81, i32* %4, align 4
  br label %68

82:                                               ; preds = %68
  %83 = getelementptr inbounds [101 x i8], [101 x i8]* %3, i64 0, i64 0
  %84 = call i32 @puts(i8* %83)
  br label %6

85:                                               ; preds = %6
  ret i32 0
}

declare dso_local i32 @gets(...) #1

declare dso_local i32 @puts(i8*) #1


!llvm.module.flags = !{!0}
!llvm.ident = !{!1}

!0 = !{i32 1, !"wchar_size", i32 4}
!1 = !{!"clang version 10.0.0-4ubuntu1 "}
